target datalayout = "e-m:e-p270:32:32-p271:32:32-p272:64:64-i64:64-i128:128-f80:128-n8:16:32:64-S128"
target triple = "x86_64-pc-linux-gnu"

%struct.NSVGrasterizer = type { float, float, float, float, ptr, i32, i32, ptr, i32, i32, ptr, i32, i32, ptr, ptr, ptr, ptr, i32, ptr, i32, i32, i32 }
%struct.NSVGmemPage = type { [1024 x i8], i32, ptr }

; Function Attrs: nounwind uwtable
define dso_local void @nsvgDeleteRasterizer(ptr noundef %0) #0 {
  %2 = alloca ptr, align 8
  %3 = alloca ptr, align 8
  %4 = alloca i32, align 4
  %5 = alloca ptr, align 8
  store ptr %0, ptr %2, align 8, !tbaa !99
  call void @llvm.lifetime.start.p0(i64 8, ptr %3) #11
  %6 = load ptr, ptr %2, align 8, !tbaa !99
  %7 = icmp eq ptr %6, null
  br i1 %7, label %8, label %9

8:                                                ; preds = %1
  store i32 1, ptr %4, align 4
  br label %60

9:                                                ; preds = %1
  %10 = load ptr, ptr %2, align 8, !tbaa !99
  %11 = getelementptr inbounds nuw %struct.NSVGrasterizer, ptr %10, i32 0, i32 14
  %12 = load ptr, ptr %11, align 8, !tbaa !108
  store ptr %12, ptr %3, align 8, !tbaa !109
  br label %13

13:                                               ; preds = %16, %9
  %14 = load ptr, ptr %3, align 8, !tbaa !109
  %15 = icmp ne ptr %14, null
  br i1 %15, label %16, label %22

16:                                               ; preds = %13
  call void @llvm.lifetime.start.p0(i64 8, ptr %5) #11
  %17 = load ptr, ptr %3, align 8, !tbaa !109
  %18 = getelementptr inbounds nuw %struct.NSVGmemPage, ptr %17, i32 0, i32 2
  %19 = load ptr, ptr %18, align 8, !tbaa !110
  store ptr %19, ptr %5, align 8, !tbaa !109
  %20 = load ptr, ptr %3, align 8, !tbaa !109
  call void @free(ptr noundef %20) #11
  %21 = load ptr, ptr %5, align 8, !tbaa !109
  store ptr %21, ptr %3, align 8, !tbaa !109
  call void @llvm.lifetime.end.p0(i64 8, ptr %5) #11
  br label %13, !llvm.loop !112

22:                                               ; preds = %13
  %23 = load ptr, ptr %2, align 8, !tbaa !99
  %24 = getelementptr inbounds nuw %struct.NSVGrasterizer, ptr %23, i32 0, i32 4
  %25 = load ptr, ptr %24, align 8, !tbaa !113
  %26 = icmp ne ptr %25, null
  br i1 %26, label %27, label %31

27:                                               ; preds = %22
  %28 = load ptr, ptr %2, align 8, !tbaa !99
  %29 = getelementptr inbounds nuw %struct.NSVGrasterizer, ptr %28, i32 0, i32 4
  %30 = load ptr, ptr %29, align 8, !tbaa !113
  call void @free(ptr noundef %30) #11
  br label %31

31:                                               ; preds = %27, %22
  %32 = load ptr, ptr %2, align 8, !tbaa !99
  %33 = getelementptr inbounds nuw %struct.NSVGrasterizer, ptr %32, i32 0, i32 7
  %34 = load ptr, ptr %33, align 8, !tbaa !114
  %35 = icmp ne ptr %34, null
  br i1 %35, label %36, label %40

36:                                               ; preds = %31
  %37 = load ptr, ptr %2, align 8, !tbaa !99
  %38 = getelementptr inbounds nuw %struct.NSVGrasterizer, ptr %37, i32 0, i32 7
  %39 = load ptr, ptr %38, align 8, !tbaa !114
  call void @free(ptr noundef %39) #11
  br label %40

40:                                               ; preds = %36, %31
  %41 = load ptr, ptr %2, align 8, !tbaa !99
  %42 = getelementptr inbounds nuw %struct.NSVGrasterizer, ptr %41, i32 0, i32 10
  %43 = load ptr, ptr %42, align 8, !tbaa !115
  %44 = icmp ne ptr %43, null
  br i1 %44, label %45, label %49

45:                                               ; preds = %40
  %46 = load ptr, ptr %2, align 8, !tbaa !99
  %47 = getelementptr inbounds nuw %struct.NSVGrasterizer, ptr %46, i32 0, i32 10
  %48 = load ptr, ptr %47, align 8, !tbaa !115
  call void @free(ptr noundef %48) #11
  br label %49

49:                                               ; preds = %45, %40
  %50 = load ptr, ptr %2, align 8, !tbaa !99
  %51 = getelementptr inbounds nuw %struct.NSVGrasterizer, ptr %50, i32 0, i32 16
  %52 = load ptr, ptr %51, align 8, !tbaa !116
  %53 = icmp ne ptr %52, null
  br i1 %53, label %54, label %58

54:                                               ; preds = %49
  %55 = load ptr, ptr %2, align 8, !tbaa !99
  %56 = getelementptr inbounds nuw %struct.NSVGrasterizer, ptr %55, i32 0, i32 16
  %57 = load ptr, ptr %56, align 8, !tbaa !116
  call void @free(ptr noundef %57) #11
  br label %58

58:                                               ; preds = %54, %49
  %59 = load ptr, ptr %2, align 8, !tbaa !99
  call void @free(ptr noundef %59) #11
  store i32 0, ptr %4, align 4
  br label %60

60:                                               ; preds = %58, %8
  call void @llvm.lifetime.end.p0(i64 8, ptr %3) #11
  %61 = load i32, ptr %4, align 4
  switch i32 %61, label %63 [
    i32 0, label %62
    i32 1, label %62
  ]

62:                                               ; preds = %60, %60
  ret void

63:                                               ; preds = %60
  unreachable
}

; Function Attrs: nounwind uwtable
define dso_local ptr @nsvgCreateRasterizer() #0 {
  %1 = alloca ptr, align 8
  %2 = alloca ptr, align 8
  %3 = alloca i32, align 4
  call void @llvm.lifetime.start.p0(i64 8, ptr %2) #11
  %4 = call noalias ptr @malloc(i64 noundef 128) #12
  store ptr %4, ptr %2, align 8, !tbaa !99
  %5 = load ptr, ptr %2, align 8, !tbaa !99
  %6 = icmp eq ptr %5, null
  br i1 %6, label %7, label %8

7:                                                ; preds = %0
  br label %15

8:                                                ; preds = %0
  %9 = load ptr, ptr %2, align 8, !tbaa !99
  call void @llvm.memset.p0.i64(ptr align 8 %9, i8 0, i64 128, i1 false)
  %10 = load ptr, ptr %2, align 8, !tbaa !99
  %11 = getelementptr inbounds nuw %struct.NSVGrasterizer, ptr %10, i32 0, i32 2
  store float 2.500000e-01, ptr %11, align 8, !tbaa !101
  %12 = load ptr, ptr %2, align 8, !tbaa !99
  %13 = getelementptr inbounds nuw %struct.NSVGrasterizer, ptr %12, i32 0, i32 3
  store float 0x3F847AE140000000, ptr %13, align 4, !tbaa !107
  %14 = load ptr, ptr %2, align 8, !tbaa !99
  store ptr %14, ptr %1, align 8
  store i32 1, ptr %3, align 4
  br label %17

15:                                               ; preds = %7
  %16 = load ptr, ptr %2, align 8, !tbaa !99
  call void @nsvgDeleteRasterizer(ptr noundef %16)
  store ptr null, ptr %1, align 8
  store i32 1, ptr %3, align 4
  br label %17

17:                                               ; preds = %15, %8
  call void @llvm.lifetime.end.p0(i64 8, ptr %2) #11
  %18 = load ptr, ptr %1, align 8
  ret ptr %18
}