; Function Attrs: mustprogress nofree nounwind willreturn memory(write, argmem: none, inaccessiblemem: readwrite) uwtable
define dso_local noalias noundef ptr @nsvgCreateRasterizer() local_unnamed_addr #10 {
  %calloc = tail call dereferenceable_or_null(128) ptr @calloc(i64 1, i64 128)
  %1 = icmp eq ptr %calloc, null
  br i1 %1, label %5, label %2

2:                                                ; preds = %0
  %3 = getelementptr inbounds nuw i8, ptr %calloc, i64 8
  store float 2.500000e-01, ptr %3, align 8, !tbaa !98
  %4 = getelementptr inbounds nuw i8, ptr %calloc, i64 12
  store float 0x3F847AE140000000, ptr %4, align 4, !tbaa !104
  br label %5

5:                                                ; preds = %0, %2
  ret ptr %calloc
}